target datalayout = "e-m:e-p270:32:32-p271:32:32-p272:64:64-i64:64-i128:128-f80:128-n8:16:32:64-S128"
target triple = "x86_64-pc-linux-gnu"

%class.OffsetCompactHashtable = type { %class.CompactHashtable }
%class.CompactHashtable = type { %class.SimpleCompactHashtable }
%class.SimpleCompactHashtable = type { ptr, i32, i32, ptr, ptr }
%class.ArchivedKlassSubGraphInfoRecord = type { ptr, i8, i8, ptr, ptr }
%class.Array = type { i32, [1 x i32] }
%class.anon.92 = type { i8 }

@_ZN10HeapShared29_run_time_subgraph_info_tableE = hidden global %class.OffsetCompactHashtable zeroinitializer, align 8
@SharedBaseAddress = external global i64, align 8

; Function Attrs: mustprogress nounwind uwtable
define linkonce_odr hidden noundef i64 @_ZZN5ArrayIiE20base_offset_in_bytesEvENKUlvE_clEv(ptr noundef nonnull align 1 dereferenceable(1) %0) #1 comdat align 2 {
  %2 = alloca ptr, align 8
  %3 = alloca [8 x i8], align 16
  %4 = alloca ptr, align 8
  %5 = alloca ptr, align 8
  store ptr %0, ptr %2, align 8
  %6 = getelementptr inbounds [8 x i8], ptr %3, i64 0, i64 0
  store ptr %6, ptr %4, align 8
  %7 = load ptr, ptr %4, align 8
  %8 = getelementptr inbounds %class.Array, ptr %7, i32 0, i32 1
  store ptr %8, ptr %5, align 8
  %9 = load ptr, ptr %5, align 8
  %10 = getelementptr inbounds [8 x i8], ptr %3, i64 0, i64 0
  %11 = ptrtoint ptr %9 to i64
  %12 = ptrtoint ptr %10 to i64
  %13 = sub i64 %11, %12
  ret i64 %13
}

; Function Attrs: mustprogress nounwind uwtable
define linkonce_odr hidden noundef i32 @_ZN5ArrayIiE20base_offset_in_bytesEv() #1 comdat align 2 {
  %1 = alloca %class.anon.92, align 1
  %2 = call noundef i64 @_ZZN5ArrayIiE20base_offset_in_bytesEvENKUlvE_clEv(ptr noundef nonnull align 1 dereferenceable(1) %1)
  %3 = trunc i64 %2 to i32
  ret i32 %3
}

; Function Attrs: mustprogress nounwind uwtable
define linkonce_odr hidden noundef ptr @_ZNK31ArchivedKlassSubGraphInfoRecord5klassEv(ptr noundef nonnull align 8 dereferenceable(32) %0) #1 comdat align 2 {
  %2 = alloca ptr, align 8
  store ptr %0, ptr %2, align 8
  %3 = load ptr, ptr %2, align 8
  %4 = getelementptr inbounds %class.ArchivedKlassSubGraphInfoRecord, ptr %3, i32 0, i32 0
  %5 = load ptr, ptr %4, align 8
  ret ptr %5
}

; Function Attrs: mustprogress nounwind uwtable
define linkonce_odr hidden noundef ptr @_Z33read_value_from_compact_hashtableIPK31ArchivedKlassSubGraphInfoRecordET_Phj(ptr noundef %0, i32 noundef %1) #1 comdat {
  %3 = alloca ptr, align 8
  %4 = alloca i32, align 4
  store ptr %0, ptr %3, align 8
  store i32 %1, ptr %4, align 4
  %5 = load ptr, ptr %3, align 8
  %6 = load i32, ptr %4, align 4
  %7 = zext i32 %6 to i64
  %8 = getelementptr inbounds i8, ptr %5, i64 %7
  ret ptr %8
}

; Function Attrs: mustprogress nounwind uwtable
define linkonce_odr hidden noundef ptr @_ZNK5ArrayIiE4dataEv(ptr noundef nonnull align 4 dereferenceable(8) %0) #1 comdat align 2 {
  %2 = alloca ptr, align 8
  store ptr %0, ptr %2, align 8
  %3 = load ptr, ptr %2, align 8
  %4 = call noundef i32 @_ZN5ArrayIiE20base_offset_in_bytesEv()
  %5 = sext i32 %4 to i64
  %6 = getelementptr inbounds i8, ptr %3, i64 %5
  ret ptr %6
}

; Function Attrs: mustprogress nounwind uwtable
define linkonce_odr hidden noundef zeroext i1 @_ZN10HeapShared37record_equals_compact_hashtable_entryEPK31ArchivedKlassSubGraphInfoRecordPK5Klassi(ptr noundef %0, ptr noundef %1, i32 noundef %2) #1 comdat align 2 {
  %4 = alloca ptr, align 8
  %5 = alloca ptr, align 8
  %6 = alloca i32, align 4
  store ptr %0, ptr %4, align 8
  store ptr %1, ptr %5, align 8
  store i32 %2, ptr %6, align 4
  %7 = load ptr, ptr %4, align 8
  %8 = call noundef ptr @_ZNK31ArchivedKlassSubGraphInfoRecord5klassEv(ptr noundef nonnull align 8 dereferenceable(32) %7)
  %9 = load ptr, ptr %5, align 8
  %10 = icmp eq ptr %8, %9
  ret i1 %10
}

; Function Attrs: mustprogress nounwind uwtable
define linkonce_odr hidden noundef ptr @_ZNK16CompactHashtableIPK5KlassPK31ArchivedKlassSubGraphInfoRecordXadL_Z33read_value_from_compact_hashtableIS5_ET_PhjEEXadL_ZN10HeapShared37record_equals_compact_hashtable_entryES5_S2_iEEE6decodeEj(ptr noundef nonnull align 8 dereferenceable(32) %0, i32 noundef %1) #1 comdat align 2 {
  %3 = alloca ptr, align 8
  %4 = alloca i32, align 4
  store ptr %0, ptr %3, align 8
  store i32 %1, ptr %4, align 4
  %5 = load ptr, ptr %3, align 8
  %6 = getelementptr inbounds %class.SimpleCompactHashtable, ptr %5, i32 0, i32 0
  %7 = load ptr, ptr %6, align 8
  %8 = load i32, ptr %4, align 4
  %9 = call noundef ptr @_Z33read_value_from_compact_hashtableIPK31ArchivedKlassSubGraphInfoRecordET_Phj(ptr noundef %7, i32 noundef %8)
  ret ptr %9
}

; Function Attrs: mustprogress nounwind uwtable
define linkonce_odr hidden noundef i32 @_Z14primitive_hashImEjRKT_(ptr noundef nonnull align 8 dereferenceable(8) %0) #1 comdat {
  %2 = alloca ptr, align 8
  %3 = alloca i32, align 4
  store ptr %0, ptr %2, align 8
  %4 = load ptr, ptr %2, align 8
  %5 = load i64, ptr %4, align 8
  %6 = trunc i64 %5 to i32
  store i32 %6, ptr %3, align 4
  %7 = load i32, ptr %3, align 4
  %8 = load i32, ptr %3, align 4
  %9 = lshr i32 %8, 3
  %10 = xor i32 %7, %9
  ret i32 %10
}

; Function Attrs: mustprogress nounwind uwtable
define linkonce_odr hidden noundef i32 @_ZNK5ArrayIiE2atEi(ptr noundef nonnull align 4 dereferenceable(8) %0, i32 noundef %1) #1 comdat align 2 {
  %3 = alloca ptr, align 8
  %4 = alloca i32, align 4
  store ptr %0, ptr %3, align 8
  store i32 %1, ptr %4, align 4
  %5 = load ptr, ptr %3, align 8
  %6 = call noundef ptr @_ZNK5ArrayIiE4dataEv(ptr noundef nonnull align 4 dereferenceable(8) %5)
  %7 = load i32, ptr %4, align 4
  %8 = sext i32 %7 to i64
  %9 = getelementptr inbounds i32, ptr %6, i64 %8
  %10 = load i32, ptr %9, align 4
  ret i32 %10
}

; Function Attrs: mustprogress nounwind uwtable
define linkonce_odr hidden noundef i32 @_ZNK5ArrayIiE6lengthEv(ptr noundef nonnull align 4 dereferenceable(8) %0) #1 comdat align 2 {
  %2 = alloca ptr, align 8
  store ptr %0, ptr %2, align 8
  %3 = load ptr, ptr %2, align 8
  %4 = getelementptr inbounds %class.Array, ptr %3, i32 0, i32 0
  %5 = load i32, ptr %4, align 4
  ret i32 %5
}

; Function Attrs: mustprogress nounwind uwtable
define linkonce_odr hidden noundef ptr @_ZNK31ArchivedKlassSubGraphInfoRecord19entry_field_recordsEv(ptr noundef nonnull align 8 dereferenceable(32) %0) #1 comdat align 2 {
  %2 = alloca ptr, align 8
  store ptr %0, ptr %2, align 8
  %3 = load ptr, ptr %2, align 8
  %4 = getelementptr inbounds %class.ArchivedKlassSubGraphInfoRecord, ptr %3, i32 0, i32 3
  %5 = load ptr, ptr %4, align 8
  ret ptr %5
}

; Function Attrs: mustprogress nounwind uwtable
define linkonce_odr hidden noundef ptr @_ZNK16CompactHashtableIPK5KlassPK31ArchivedKlassSubGraphInfoRecordXadL_Z33read_value_from_compact_hashtableIS5_ET_PhjEEXadL_ZN10HeapShared37record_equals_compact_hashtable_entryES5_S2_iEEE6lookupES2_ji(ptr noundef nonnull align 8 dereferenceable(32) %0, ptr noundef %1, i32 noundef %2, i32 noundef %3) #1 comdat align 2 {
  %5 = alloca ptr, align 8
  %6 = alloca ptr, align 8
  %7 = alloca ptr, align 8
  %8 = alloca i32, align 4
  %9 = alloca i32, align 4
  %10 = alloca i32, align 4
  %11 = alloca i32, align 4
  %12 = alloca i32, align 4
  %13 = alloca i32, align 4
  %14 = alloca ptr, align 8
  %15 = alloca ptr, align 8
  %16 = alloca ptr, align 8
  %17 = alloca i32, align 4
  %18 = alloca ptr, align 8
  store ptr %0, ptr %6, align 8
  store ptr %1, ptr %7, align 8
  store i32 %2, ptr %8, align 4
  store i32 %3, ptr %9, align 4
  %19 = load ptr, ptr %6, align 8
  %20 = getelementptr inbounds %class.SimpleCompactHashtable, ptr %19, i32 0, i32 2
  %21 = load i32, ptr %20, align 4
  %22 = icmp ugt i32 %21, 0
  br i1 %22, label %23, label %99

23:                                               ; preds = %4
  %24 = load i32, ptr %8, align 4
  %25 = getelementptr inbounds %class.SimpleCompactHashtable, ptr %19, i32 0, i32 1
  %26 = load i32, ptr %25, align 8
  %27 = urem i32 %24, %26
  store i32 %27, ptr %10, align 4
  %28 = getelementptr inbounds %class.SimpleCompactHashtable, ptr %19, i32 0, i32 3
  %29 = load ptr, ptr %28, align 8
  %30 = load i32, ptr %10, align 4
  %31 = sext i32 %30 to i64
  %32 = getelementptr inbounds i32, ptr %29, i64 %31
  %33 = load i32, ptr %32, align 4
  store i32 %33, ptr %11, align 4
  %34 = load i32, ptr %11, align 4
  %35 = and i32 %34, 1073741823
  store i32 %35, ptr %12, align 4
  %36 = load i32, ptr %11, align 4
  %37 = and i32 %36, -1073741824
  %38 = lshr i32 %37, 30
  store i32 %38, ptr %13, align 4
  %39 = getelementptr inbounds %class.SimpleCompactHashtable, ptr %19, i32 0, i32 4
  %40 = load ptr, ptr %39, align 8
  %41 = load i32, ptr %12, align 4
  %42 = zext i32 %41 to i64
  %43 = getelementptr inbounds i32, ptr %40, i64 %42
  store ptr %43, ptr %14, align 8
  %44 = load i32, ptr %13, align 4
  %45 = icmp eq i32 %44, 1
  br i1 %45, label %46, label %58

46:                                               ; preds = %23
  %47 = load ptr, ptr %14, align 8
  %48 = getelementptr inbounds i32, ptr %47, i64 0
  %49 = load i32, ptr %48, align 4
  %50 = call noundef ptr @_ZNK16CompactHashtableIPK5KlassPK31ArchivedKlassSubGraphInfoRecordXadL_Z33read_value_from_compact_hashtableIS5_ET_PhjEEXadL_ZN10HeapShared37record_equals_compact_hashtable_entryES5_S2_iEEE6decodeEj(ptr noundef nonnull align 8 dereferenceable(32) %19, i32 noundef %49)
  store ptr %50, ptr %15, align 8
  %51 = load ptr, ptr %15, align 8
  %52 = load ptr, ptr %7, align 8
  %53 = load i32, ptr %9, align 4
  %54 = call noundef zeroext i1 @_ZN10HeapShared37record_equals_compact_hashtable_entryEPK31ArchivedKlassSubGraphInfoRecordPK5Klassi(ptr noundef %51, ptr noundef %52, i32 noundef %53)
  br i1 %54, label %55, label %57

55:                                               ; preds = %46
  %56 = load ptr, ptr %15, align 8
  store ptr %56, ptr %5, align 8
  br label %100

57:                                               ; preds = %46
  br label %98

58:                                               ; preds = %23
  %59 = getelementptr inbounds %class.SimpleCompactHashtable, ptr %19, i32 0, i32 4
  %60 = load ptr, ptr %59, align 8
  %61 = getelementptr inbounds %class.SimpleCompactHashtable, ptr %19, i32 0, i32 3
  %62 = load ptr, ptr %61, align 8
  %63 = load i32, ptr %10, align 4
  %64 = add nsw i32 %63, 1
  %65 = sext i32 %64 to i64
  %66 = getelementptr inbounds i32, ptr %62, i64 %65
  %67 = load i32, ptr %66, align 4
  %68 = and i32 %67, 1073741823
  %69 = zext i32 %68 to i64
  %70 = getelementptr inbounds i32, ptr %60, i64 %69
  store ptr %70, ptr %16, align 8
  br label %71

71:                                               ; preds = %94, %58
  %72 = load ptr, ptr %14, align 8
  %73 = load ptr, ptr %16, align 8
  %74 = icmp ult ptr %72, %73
  br i1 %74, label %75, label %97

75:                                               ; preds = %71
  %76 = load ptr, ptr %14, align 8
  %77 = getelementptr inbounds i32, ptr %76, i64 0
  %78 = load i32, ptr %77, align 4
  store i32 %78, ptr %17, align 4
  %79 = load i32, ptr %17, align 4
  %80 = load i32, ptr %8, align 4
  %81 = icmp eq i32 %79, %80
  br i1 %81, label %82, label %94

82:                                               ; preds = %75
  %83 = load ptr, ptr %14, align 8
  %84 = getelementptr inbounds i32, ptr %83, i64 1
  %85 = load i32, ptr %84, align 4
  %86 = call noundef ptr @_ZNK16CompactHashtableIPK5KlassPK31ArchivedKlassSubGraphInfoRecordXadL_Z33read_value_from_compact_hashtableIS5_ET_PhjEEXadL_ZN10HeapShared37record_equals_compact_hashtable_entryES5_S2_iEEE6decodeEj(ptr noundef nonnull align 8 dereferenceable(32) %19, i32 noundef %85)
  store ptr %86, ptr %18, align 8
  %87 = load ptr, ptr %18, align 8
  %88 = load ptr, ptr %7, align 8
  %89 = load i32, ptr %9, align 4
  %90 = call noundef zeroext i1 @_ZN10HeapShared37record_equals_compact_hashtable_entryEPK31ArchivedKlassSubGraphInfoRecordPK5Klassi(ptr noundef %87, ptr noundef %88, i32 noundef %89)
  br i1 %90, label %91, label %93

91:                                               ; preds = %82
  %92 = load ptr, ptr %18, align 8
  store ptr %92, ptr %5, align 8
  br label %100

93:                                               ; preds = %82
  br label %94

94:                                               ; preds = %93, %75
  %95 = load ptr, ptr %14, align 8
  %96 = getelementptr inbounds i32, ptr %95, i64 2
  store ptr %96, ptr %14, align 8
  br label %71, !llvm.loop !24

97:                                               ; preds = %71
  br label %98

98:                                               ; preds = %97, %57
  br label %99

99:                                               ; preds = %98, %4
  store ptr null, ptr %5, align 8
  br label %100

100:                                              ; preds = %99, %91, %55
  %101 = load ptr, ptr %5, align 8
  ret ptr %101
}

; Function Attrs: mustprogress nounwind uwtable
define linkonce_odr hidden noundef i32 @_ZN22SystemDictionaryShared32hash_for_shared_dictionary_quickI5KlassEEjPT_(ptr noundef %0) #1 comdat align 2 {
  %2 = alloca ptr, align 8
  %3 = alloca i64, align 8
  store ptr %0, ptr %2, align 8
  %4 = load ptr, ptr %2, align 8
  %5 = ptrtoint ptr %4 to i64
  %6 = load i64, ptr @SharedBaseAddress, align 8
  %7 = sub i64 %5, %6
  store i64 %7, ptr %3, align 8
  %8 = call noundef i32 @_Z14primitive_hashImEjRKT_(ptr noundef nonnull align 8 dereferenceable(8) %3)
  ret i32 %8
}

; Function Attrs: mustprogress nounwind uwtable
define hidden void @_ZN10HeapShared23clear_archived_roots_ofEP5Klass(ptr noundef %0) #1 align 2 {
  %2 = alloca ptr, align 8
  %3 = alloca i32, align 4
  %4 = alloca ptr, align 8
  %5 = alloca ptr, align 8
  %6 = alloca i32, align 4
  %7 = alloca i32, align 4
  %8 = alloca i32, align 4
  store ptr %0, ptr %2, align 8
  %9 = load ptr, ptr %2, align 8
  %10 = call noundef i32 @_ZN22SystemDictionaryShared32hash_for_shared_dictionary_quickI5KlassEEjPT_(ptr noundef %9)
  store i32 %10, ptr %3, align 4
  %11 = load ptr, ptr %2, align 8
  %12 = load i32, ptr %3, align 4
  %13 = call noundef ptr @_ZNK16CompactHashtableIPK5KlassPK31ArchivedKlassSubGraphInfoRecordXadL_Z33read_value_from_compact_hashtableIS5_ET_PhjEEXadL_ZN10HeapShared37record_equals_compact_hashtable_entryES5_S2_iEEE6lookupES2_ji(ptr noundef nonnull align 8 dereferenceable(32) @_ZN10HeapShared29_run_time_subgraph_info_tableE, ptr noundef %11, i32 noundef %12, i32 noundef 0)
  store ptr %13, ptr %4, align 8
  %14 = load ptr, ptr %4, align 8
  %15 = icmp ne ptr %14, null
  br i1 %15, label %16, label %39

16:                                               ; preds = %1
  %17 = load ptr, ptr %4, align 8
  %18 = call noundef ptr @_ZNK31ArchivedKlassSubGraphInfoRecord19entry_field_recordsEv(ptr noundef nonnull align 8 dereferenceable(32) %17)
  store ptr %18, ptr %5, align 8
  %19 = load ptr, ptr %5, align 8
  %20 = icmp ne ptr %19, null
  br i1 %20, label %21, label %38

21:                                               ; preds = %16
  %22 = load ptr, ptr %5, align 8
  %23 = call noundef i32 @_ZNK5ArrayIiE6lengthEv(ptr noundef nonnull align 4 dereferenceable(8) %22)
  store i32 %23, ptr %6, align 4
  store i32 0, ptr %7, align 4
  br label %24

24:                                               ; preds = %34, %21
  %25 = load i32, ptr %7, align 4
  %26 = load i32, ptr %6, align 4
  %27 = icmp slt i32 %25, %26
  br i1 %27, label %28, label %37

28:                                               ; preds = %24
  %29 = load ptr, ptr %5, align 8
  %30 = load i32, ptr %7, align 4
  %31 = add nsw i32 %30, 1
  %32 = call noundef i32 @_ZNK5ArrayIiE2atEi(ptr noundef nonnull align 4 dereferenceable(8) %29, i32 noundef %31)
  store i32 %32, ptr %8, align 4
  %33 = load i32, ptr %8, align 4
  call void @_ZN10HeapShared10clear_rootEi(i32 noundef %33)
  br label %34

34:                                               ; preds = %28
  %35 = load i32, ptr %7, align 4
  %36 = add nsw i32 %35, 2
  store i32 %36, ptr %7, align 4
  br label %24, !llvm.loop !22

37:                                               ; preds = %24
  br label %38

38:                                               ; preds = %37, %16
  br label %39

39:                                               ; preds = %38, %1
  ret void
}