; Function Attrs: mustprogress nounwind uwtable
define hidden void @_ZN10HeapShared23clear_archived_roots_ofEP5Klass(ptr noundef %0) local_unnamed_addr #2 align 2 {
  %2 = ptrtoint ptr %0 to i64
  %3 = load i64, ptr @SharedBaseAddress, align 8
  %4 = sub i64 %2, %3
  %5 = trunc i64 %4 to i32
  %6 = lshr i32 %5, 3
  %7 = xor i32 %6, %5
  %8 = load i32, ptr getelementptr inbounds (i8, ptr @_ZN10HeapShared29_run_time_subgraph_info_tableE, i64 12), align 4
  %.not.i = icmp eq i32 %8, 0
  br i1 %.not.i, label %_ZNK16CompactHashtableIPK5KlassPK31ArchivedKlassSubGraphInfoRecordXadL_Z33read_value_from_compact_hashtableIS5_ET_PhjEEXadL_ZN10HeapShared37record_equals_compact_hashtable_entryES5_S2_iEEE6lookupES2_ji.exit, label %9

9:                                                ; preds = %1
  %10 = load i32, ptr getelementptr inbounds (i8, ptr @_ZN10HeapShared29_run_time_subgraph_info_tableE, i64 8), align 8
  %11 = urem i32 %7, %10
  %12 = load ptr, ptr getelementptr inbounds (i8, ptr @_ZN10HeapShared29_run_time_subgraph_info_tableE, i64 16), align 8
  %13 = sext i32 %11 to i64
  %14 = getelementptr inbounds i32, ptr %12, i64 %13
  %15 = load i32, ptr %14, align 4
  %16 = and i32 %15, 1073741823
  %17 = load ptr, ptr getelementptr inbounds (i8, ptr @_ZN10HeapShared29_run_time_subgraph_info_tableE, i64 24), align 8
  %18 = zext nneg i32 %16 to i64
  %19 = getelementptr inbounds i32, ptr %17, i64 %18
  %.mask.i = and i32 %15, -1073741824
  %20 = icmp eq i32 %.mask.i, 1073741824
  br i1 %20, label %21, label %28

21:                                               ; preds = %9
  %22 = load i32, ptr %19, align 4
  %23 = load ptr, ptr @_ZN10HeapShared29_run_time_subgraph_info_tableE, align 8
  %24 = zext i32 %22 to i64
  %25 = getelementptr inbounds i8, ptr %23, i64 %24
  %26 = load ptr, ptr %25, align 8
  %27 = icmp eq ptr %26, %0
  br i1 %27, label %.loopexit, label %_ZNK16CompactHashtableIPK5KlassPK31ArchivedKlassSubGraphInfoRecordXadL_Z33read_value_from_compact_hashtableIS5_ET_PhjEEXadL_ZN10HeapShared37record_equals_compact_hashtable_entryES5_S2_iEEE6lookupES2_ji.exit

28:                                               ; preds = %9
  %29 = getelementptr i8, ptr %14, i64 4
  %30 = load i32, ptr %29, align 4
  %31 = and i32 %30, 1073741823
  %32 = zext nneg i32 %31 to i64
  %33 = getelementptr inbounds i32, ptr %17, i64 %32
  %34 = icmp ult i32 %16, %31
  br i1 %34, label %.lr.ph.i, label %_ZNK16CompactHashtableIPK5KlassPK31ArchivedKlassSubGraphInfoRecordXadL_Z33read_value_from_compact_hashtableIS5_ET_PhjEEXadL_ZN10HeapShared37record_equals_compact_hashtable_entryES5_S2_iEEE6lookupES2_ji.exit

.lr.ph.i:                                         ; preds = %28
  %35 = load ptr, ptr @_ZN10HeapShared29_run_time_subgraph_info_tableE, align 8
  br label %36

36:                                               ; preds = %46, %.lr.ph.i
  %.02428.i = phi ptr [ %19, %.lr.ph.i ], [ %47, %46 ]
  %37 = load i32, ptr %.02428.i, align 4
  %38 = icmp eq i32 %37, %7
  br i1 %38, label %39, label %46

39:                                               ; preds = %36
  %40 = getelementptr inbounds i8, ptr %.02428.i, i64 4
  %41 = load i32, ptr %40, align 4
  %42 = zext i32 %41 to i64
  %43 = getelementptr inbounds i8, ptr %35, i64 %42
  %44 = load ptr, ptr %43, align 8
  %45 = icmp eq ptr %44, %0
  br i1 %45, label %.loopexit.loopexit, label %46

46:                                               ; preds = %39, %36
  %47 = getelementptr inbounds i8, ptr %.02428.i, i64 8
  %48 = icmp ult ptr %47, %33
  br i1 %48, label %36, label %_ZNK16CompactHashtableIPK5KlassPK31ArchivedKlassSubGraphInfoRecordXadL_Z33read_value_from_compact_hashtableIS5_ET_PhjEEXadL_ZN10HeapShared37record_equals_compact_hashtable_entryES5_S2_iEEE6lookupES2_ji.exit, !llvm.loop !40

.loopexit.loopexit:                               ; preds = %39
  %49 = getelementptr inbounds i8, ptr %35, i64 %42
  br label %.loopexit

.loopexit:                                        ; preds = %.loopexit.loopexit, %21
  %.0.i.ph = phi ptr [ %25, %21 ], [ %49, %.loopexit.loopexit ]
  %50 = getelementptr inbounds i8, ptr %.0.i.ph, i64 16
  %51 = load ptr, ptr %50, align 8
  %.not14 = icmp eq ptr %51, null
  br i1 %.not14, label %_ZNK16CompactHashtableIPK5KlassPK31ArchivedKlassSubGraphInfoRecordXadL_Z33read_value_from_compact_hashtableIS5_ET_PhjEEXadL_ZN10HeapShared37record_equals_compact_hashtable_entryES5_S2_iEEE6lookupES2_ji.exit, label %52

52:                                               ; preds = %.loopexit
  %53 = load i32, ptr %51, align 4
  %54 = icmp sgt i32 %53, 0
  br i1 %54, label %.lr.ph, label %_ZNK16CompactHashtableIPK5KlassPK31ArchivedKlassSubGraphInfoRecordXadL_Z33read_value_from_compact_hashtableIS5_ET_PhjEEXadL_ZN10HeapShared37record_equals_compact_hashtable_entryES5_S2_iEEE6lookupES2_ji.exit

.lr.ph:                                           ; preds = %52
  %55 = getelementptr i8, ptr %51, i64 8
  br label %56

56:                                               ; preds = %.lr.ph, %56
  %indvars.iv = phi i64 [ 0, %.lr.ph ], [ %indvars.iv.next, %56 ]
  %57 = getelementptr i32, ptr %55, i64 %indvars.iv
  %58 = load i32, ptr %57, align 4
  tail call void @_ZN10HeapShared10clear_rootEi(i32 noundef %58)
  %indvars.iv.next = add nuw nsw i64 %indvars.iv, 2
  %59 = trunc nuw i64 %indvars.iv.next to i32
  %60 = icmp sgt i32 %53, %59
  br i1 %60, label %56, label %_ZNK16CompactHashtableIPK5KlassPK31ArchivedKlassSubGraphInfoRecordXadL_Z33read_value_from_compact_hashtableIS5_ET_PhjEEXadL_ZN10HeapShared37record_equals_compact_hashtable_entryES5_S2_iEEE6lookupES2_ji.exit, !llvm.loop !41

_ZNK16CompactHashtableIPK5KlassPK31ArchivedKlassSubGraphInfoRecordXadL_Z33read_value_from_compact_hashtableIS5_ET_PhjEEXadL_ZN10HeapShared37record_equals_compact_hashtable_entryES5_S2_iEEE6lookupES2_ji.exit: ; preds = %46, %56, %52, %28, %21, %1, %.loopexit
  ret void
}